; Function Attrs: mustprogress nounwind uwtable
define dso_local void @_ZNK4llvm9DWARFUnit16extractRangeListEmRNS_19DWARFDebugRangeListE(ptr dead_on_unwind noalias writable sret(%"class.llvm::Error") align 8 %0, ptr nocapture noundef nonnull readonly align 8 dereferenceable(448) %1, i64 noundef %2, ptr noundef nonnull align 8 dereferenceable(40) %3) local_unnamed_addr #0 align 2 {
  %5 = alloca %"class.llvm::DWARFDataExtractor", align 8
  %6 = alloca i64, align 8
  %7 = getelementptr inbounds nuw i8, ptr %1, i64 8
  %8 = load ptr, ptr %7, align 8
  %9 = getelementptr inbounds nuw i8, ptr %8, i64 96
  %10 = load ptr, ptr %9, align 8
  %11 = getelementptr inbounds nuw i8, ptr %1, i64 112
  %12 = load ptr, ptr %11, align 8
  %13 = getelementptr inbounds nuw i8, ptr %1, i64 208
  %14 = load i8, ptr %13, align 8
  %15 = getelementptr inbounds i8, ptr %1, i64 34
  %16 = load i8, ptr %15, align 2
  %.sroa.0.0.copyload.i = load ptr, ptr %12, align 8
  %.sroa.2.0..sroa_idx.i = getelementptr inbounds i8, ptr %12, i64 8
  %.sroa.2.0.copyload.i = load i64, ptr %.sroa.2.0..sroa_idx.i, align 8
  %17 = and i8 %14, 1
  store ptr %.sroa.0.0.copyload.i, ptr %5, align 8
  %.sroa.2.0..sroa_idx.i.i = getelementptr inbounds i8, ptr %5, i64 8
  store i64 %.sroa.2.0.copyload.i, ptr %.sroa.2.0..sroa_idx.i.i, align 8
  %18 = getelementptr inbounds nuw i8, ptr %5, i64 16
  store i8 %17, ptr %18, align 8
  %19 = getelementptr inbounds nuw i8, ptr %5, i64 17
  store i8 %16, ptr %19, align 1
  %20 = getelementptr inbounds nuw i8, ptr %5, i64 24
  store ptr %10, ptr %20, align 8
  %21 = getelementptr inbounds nuw i8, ptr %5, i64 32
  store ptr %12, ptr %21, align 8
  %22 = getelementptr inbounds nuw i8, ptr %1, i64 120
  %23 = load i64, ptr %22, align 8
  %24 = add i64 %23, %2
  store i64 %24, ptr %6, align 8
  call void @_ZN4llvm19DWARFDebugRangeList7extractERKNS_18DWARFDataExtractorEPm(ptr dead_on_unwind writable sret(%"class.llvm::Error") align 8 %0, ptr noundef nonnull align 8 dereferenceable(40) %3, ptr noundef nonnull align 8 dereferenceable(40) %5, ptr noundef nonnull %6) #22
  ret void
}